target datalayout = "e-m:e-p270:32:32-p271:32:32-p272:64:64-i64:64-i128:128-f80:128-n8:16:32:64-S128"
target triple = "x86_64-pc-linux-gnu"

%struct._zend_phpdbg_globals = type { [11 x %struct._zend_array], %struct._zend_array, %struct._zend_array, ptr, ptr, %struct.phpdbg_frame_t, i32, ptr, %struct.phpdbg_lexer_data, ptr, %struct.sigaction, i32, i64, %struct.phpdbg_btree, %struct.phpdbg_btree, %struct._zend_array, %struct._zend_array, %struct._zend_array, %struct._zend_array, ptr, ptr, ptr, i8, ptr, ptr, ptr, i64, ptr, %struct._zval_struct, i32, i32, i8, i8, ptr, ptr, ptr, %struct._zend_array, ptr, ptr, ptr, [3 x %struct.anon.8], ptr, %struct.anon.9, i64, [2 x ptr], [3 x ptr], ptr, i8, ptr, ptr, [500 x i8], i32, %struct.phpdbg_signal_safe_mem, ptr, i64, ptr, i64 }
%struct.phpdbg_frame_t = type { i32, ptr, ptr }
%struct.phpdbg_lexer_data = type { i32, ptr, ptr, ptr, ptr, i32 }
%struct.sigaction = type { %union.anon.2, %struct.__sigset_t, i32, ptr }
%union.anon.2 = type { ptr }
%struct.__sigset_t = type { [16 x i64] }
%struct.phpdbg_btree = type { i64, i64, i8, ptr }
%struct._zval_struct = type { %union._zend_value, %union.anon.4, %union.anon.7 }
%union._zend_value = type { i64 }
%union.anon.4 = type { i32 }
%union.anon.7 = type { i32 }
%struct._zend_array = type { %struct._zend_refcounted_h, %union.anon.0, i32, %union.anon.1, i32, i32, i32, i32, i64, ptr }
%struct._zend_refcounted_h = type { i32, %union.anon }
%union.anon = type { i32 }
%union.anon.0 = type { i32 }
%union.anon.1 = type { ptr }
%struct.anon.8 = type { i32 }
%struct.anon.9 = type { i8, i32, i32, ptr, i32 }
%struct.phpdbg_signal_safe_mem = type { ptr, i8, ptr, ptr }
%struct._zend_executor_globals = type { %struct._zval_struct, %struct._zval_struct, [32 x ptr], ptr, ptr, %struct._zend_array, %struct._zend_array, ptr, i32, i8, %struct._zval_struct, i32, ptr, ptr, ptr, ptr, ptr, ptr, i64, ptr, ptr, i32, ptr, i32, i64, i32, i32, i32, i8, i8, %struct.zend_atomic_bool_s, %struct.zend_atomic_bool_s, ptr, i64, ptr, ptr, %struct._zend_array, %struct._zend_array, i32, i8, %struct._zval_struct, %struct._zval_struct, %struct._zend_stack, %struct._zend_stack, %struct._zend_stack, ptr, i32, i32, i64, ptr, ptr, ptr, %struct._zend_objects_store, %struct._zend_lazy_objects_store, ptr, ptr, ptr, [3 x %struct._zend_op], ptr, i8, i8, i64, i32, i32, ptr, [16 x %struct._HashTableIterator], ptr, %union._zend_function, %struct._zend_op, %struct._zend_array, i64, %struct.zend_get_gc_buffer, ptr, ptr, ptr, i64, i8, i32, ptr, ptr, i64, %struct._zend_call_stack, i64, i64, %struct._zend_strtod_state, [6 x ptr] }
%struct.zend_atomic_bool_s = type { i8 }
%struct._zend_stack = type { i32, i32, i32, ptr }
%struct._zend_objects_store = type { ptr, i32, i32, i32 }
%struct._zend_lazy_objects_store = type { %struct._zend_array }
%struct._HashTableIterator = type { ptr, i32, i32 }
%union._zend_function = type { %struct._zend_op_array }
%struct._zend_op_array = type { i8, [3 x i8], i32, ptr, ptr, ptr, i32, i32, ptr, ptr, ptr, ptr, i32, ptr, i32, i32, i32, ptr, ptr, ptr, ptr, ptr, i32, i32, ptr, ptr, ptr, i32, i32, i32, i32, ptr, ptr, [6 x ptr] }
%struct._zend_op = type { ptr, %union._znode_op, %union._znode_op, %union._znode_op, i32, i32, i8, i8, i8, i8 }
%union._znode_op = type { i32 }
%struct.zend_get_gc_buffer = type { ptr, ptr, ptr }
%struct._zend_call_stack = type { ptr, i64 }
%struct._zend_strtod_state = type { [8 x ptr], ptr, ptr }
%struct._zend_string = type { %struct._zend_refcounted_h, i64, i64, [1 x i8] }
%struct._zend_class_entry = type { i8, ptr, %union.anon.11, i32, i32, i32, i32, ptr, ptr, ptr, %struct._zend_array, %struct._zend_array, %struct._zend_array, ptr, ptr, ptr, ptr, ptr, ptr, ptr, ptr, ptr, ptr, ptr, ptr, ptr, ptr, ptr, ptr, ptr, ptr, ptr, %union.anon.12, ptr, ptr, ptr, ptr, i32, i32, i32, i32, %union.anon.13, ptr, ptr, ptr, ptr, i32, ptr, ptr, %union.anon.14 }
%union.anon.11 = type { ptr }
%union.anon.12 = type { ptr }
%union.anon.13 = type { ptr }
%union.anon.14 = type { %struct.anon.15 }
%struct.anon.15 = type { ptr, i32, i32 }
%struct.anon.5 = type { i8, i8, %union.anon.6 }
%union.anon.6 = type { i16 }
%struct._zend_execute_data = type { ptr, ptr, ptr, ptr, %struct._zval_struct, ptr, ptr, ptr, ptr }

@phpdbg_globals = external global %struct._zend_phpdbg_globals, align 8
@executor_globals = external global %struct._zend_executor_globals, align 8
@.str.36 = private unnamed_addr constant [35 x i8] c"Literal Constants in %s::%s() (%d)\00", align 1
@.str.37 = private unnamed_addr constant [31 x i8] c"Literal Constants in %s() (%d)\00", align 1
@.str.38 = private unnamed_addr constant [29 x i8] c"Literal Constants in %s (%d)\00", align 1
@.str.39 = private unnamed_addr constant [28 x i8] c"Literal Constants @ %p (%d)\00", align 1
@.str.40 = private unnamed_addr constant [25 x i8] c"|-------- C%u -------> [\00", align 1
@.str.41 = private unnamed_addr constant [3 x i8] c"]\0A\00", align 1
@.str.42 = private unnamed_addr constant [15 x i8] c"Not executing!\00", align 1

; Function Attrs: alwaysinline nounwind uwtable
define internal zeroext i8 @zval_get_type(ptr noundef %0) #4 {
  %2 = alloca ptr, align 8
  store ptr %0, ptr %2, align 8, !tbaa !47
  %3 = load ptr, ptr %2, align 8, !tbaa !47
  %4 = getelementptr inbounds nuw %struct._zval_struct, ptr %3, i32 0, i32 1
  %5 = getelementptr inbounds nuw %struct.anon.5, ptr %4, i32 0, i32 0
  %6 = load i8, ptr %5, align 8, !tbaa !43
  ret i8 %6
}

; Function Attrs: nounwind uwtable
define hidden i32 @phpdbg_do_info_literal(ptr noundef %0) #0 {
  %2 = alloca ptr, align 8
  %3 = alloca i8, align 1
  %4 = alloca ptr, align 8
  %5 = alloca i32, align 4
  %6 = alloca i32, align 4
  store ptr %0, ptr %2, align 8, !tbaa !4
  call void @llvm.lifetime.start.p0(i64 1, ptr %3) #8
  %7 = load i8, ptr getelementptr inbounds nuw (%struct._zend_phpdbg_globals, ptr @phpdbg_globals, i32 0, i32 31), align 8, !tbaa !119, !range !120, !noundef !121
  %8 = trunc i8 %7 to i1
  br i1 %8, label %9, label %17

9:                                                ; preds = %1
  %10 = load ptr, ptr getelementptr inbounds nuw (%struct._zend_executor_globals, ptr @executor_globals, i32 0, i32 19), align 8, !tbaa !122
  %11 = icmp ne ptr %10, null
  br i1 %11, label %12, label %17

12:                                               ; preds = %9
  %13 = load ptr, ptr getelementptr inbounds nuw (%struct._zend_executor_globals, ptr @executor_globals, i32 0, i32 19), align 8, !tbaa !122
  %14 = getelementptr inbounds nuw %struct._zend_execute_data, ptr %13, i32 0, i32 3
  %15 = load ptr, ptr %14, align 8, !tbaa !123
  %16 = icmp ne ptr %15, null
  br label %17

17:                                               ; preds = %12, %9, %1
  %18 = phi i1 [ false, %9 ], [ false, %1 ], [ %16, %12 ]
  %19 = zext i1 %18 to i8
  store i8 %19, ptr %3, align 1, !tbaa !125
  %20 = load i8, ptr %3, align 1, !tbaa !125, !range !120, !noundef !121
  %21 = trunc i8 %20 to i1
  br i1 %21, label %25, label %22

22:                                               ; preds = %17
  %23 = load ptr, ptr getelementptr inbounds nuw (%struct._zend_phpdbg_globals, ptr @phpdbg_globals, i32 0, i32 27), align 8, !tbaa !126
  %24 = icmp ne ptr %23, null
  br i1 %24, label %25, label %129

25:                                               ; preds = %22, %17
  call void @llvm.lifetime.start.p0(i64 8, ptr %4) #8
  %26 = load i8, ptr %3, align 1, !tbaa !125, !range !120, !noundef !121
  %27 = trunc i8 %26 to i1
  br i1 %27, label %28, label %32

28:                                               ; preds = %25
  %29 = load ptr, ptr getelementptr inbounds nuw (%struct._zend_executor_globals, ptr @executor_globals, i32 0, i32 19), align 8, !tbaa !122
  %30 = getelementptr inbounds nuw %struct._zend_execute_data, ptr %29, i32 0, i32 3
  %31 = load ptr, ptr %30, align 8, !tbaa !123
  br label %34

32:                                               ; preds = %25
  %33 = load ptr, ptr getelementptr inbounds nuw (%struct._zend_phpdbg_globals, ptr @phpdbg_globals, i32 0, i32 27), align 8, !tbaa !126
  br label %34

34:                                               ; preds = %32, %28
  %35 = phi ptr [ %31, %28 ], [ %33, %32 ]
  store ptr %35, ptr %4, align 8, !tbaa !92
  call void @llvm.lifetime.start.p0(i64 4, ptr %5) #8
  store i32 0, ptr %5, align 4, !tbaa !127
  call void @llvm.lifetime.start.p0(i64 4, ptr %6) #8
  %36 = load ptr, ptr %4, align 8, !tbaa !92
  %37 = getelementptr inbounds nuw %struct._zend_op_array, ptr %36, i32 0, i32 29
  %38 = load i32, ptr %37, align 8, !tbaa !128
  %39 = sub nsw i32 %38, 1
  store i32 %39, ptr %6, align 4, !tbaa !127
  %40 = load ptr, ptr %4, align 8, !tbaa !92
  %41 = getelementptr inbounds nuw %struct._zend_op_array, ptr %40, i32 0, i32 3
  %42 = load ptr, ptr %41, align 8, !tbaa !93
  %43 = icmp ne ptr %42, null
  br i1 %43, label %44, label %75

44:                                               ; preds = %34
  %45 = load ptr, ptr %4, align 8, !tbaa !92
  %46 = getelementptr inbounds nuw %struct._zend_op_array, ptr %45, i32 0, i32 4
  %47 = load ptr, ptr %46, align 8, !tbaa !129
  %48 = icmp ne ptr %47, null
  br i1 %48, label %49, label %65

49:                                               ; preds = %44
  %50 = load i32, ptr getelementptr inbounds ([3 x %struct.anon.8], ptr getelementptr inbounds nuw (%struct._zend_phpdbg_globals, ptr @phpdbg_globals, i32 0, i32 40), i64 0, i64 1), align 4, !tbaa !40
  %51 = load ptr, ptr %4, align 8, !tbaa !92
  %52 = getelementptr inbounds nuw %struct._zend_op_array, ptr %51, i32 0, i32 4
  %53 = load ptr, ptr %52, align 8, !tbaa !129
  %54 = getelementptr inbounds nuw %struct._zend_class_entry, ptr %53, i32 0, i32 1
  %55 = load ptr, ptr %54, align 8, !tbaa !130
  %56 = getelementptr inbounds nuw %struct._zend_string, ptr %55, i32 0, i32 3
  %57 = getelementptr inbounds [1 x i8], ptr %56, i64 0, i64 0
  %58 = load ptr, ptr %4, align 8, !tbaa !92
  %59 = getelementptr inbounds nuw %struct._zend_op_array, ptr %58, i32 0, i32 3
  %60 = load ptr, ptr %59, align 8, !tbaa !93
  %61 = getelementptr inbounds nuw %struct._zend_string, ptr %60, i32 0, i32 3
  %62 = getelementptr inbounds [1 x i8], ptr %61, i64 0, i64 0
  %63 = load i32, ptr %6, align 4, !tbaa !127
  %64 = call i32 (i32, i32, ptr, ...) @phpdbg_print(i32 noundef 2, i32 noundef %50, ptr noundef @.str.36, ptr noundef %57, ptr noundef %62, i32 noundef %63)
  br label %74

65:                                               ; preds = %44
  %66 = load i32, ptr getelementptr inbounds ([3 x %struct.anon.8], ptr getelementptr inbounds nuw (%struct._zend_phpdbg_globals, ptr @phpdbg_globals, i32 0, i32 40), i64 0, i64 1), align 4, !tbaa !40
  %67 = load ptr, ptr %4, align 8, !tbaa !92
  %68 = getelementptr inbounds nuw %struct._zend_op_array, ptr %67, i32 0, i32 3
  %69 = load ptr, ptr %68, align 8, !tbaa !93
  %70 = getelementptr inbounds nuw %struct._zend_string, ptr %69, i32 0, i32 3
  %71 = getelementptr inbounds [1 x i8], ptr %70, i64 0, i64 0
  %72 = load i32, ptr %6, align 4, !tbaa !127
  %73 = call i32 (i32, i32, ptr, ...) @phpdbg_print(i32 noundef 2, i32 noundef %66, ptr noundef @.str.37, ptr noundef %71, i32 noundef %72)
  br label %74

74:                                               ; preds = %65, %49
  br label %95

75:                                               ; preds = %34
  %76 = load ptr, ptr %4, align 8, !tbaa !92
  %77 = getelementptr inbounds nuw %struct._zend_op_array, ptr %76, i32 0, i32 26
  %78 = load ptr, ptr %77, align 8, !tbaa !102
  %79 = icmp ne ptr %78, null
  br i1 %79, label %80, label %89

80:                                               ; preds = %75
  %81 = load i32, ptr getelementptr inbounds ([3 x %struct.anon.8], ptr getelementptr inbounds nuw (%struct._zend_phpdbg_globals, ptr @phpdbg_globals, i32 0, i32 40), i64 0, i64 1), align 4, !tbaa !40
  %82 = load ptr, ptr %4, align 8, !tbaa !92
  %83 = getelementptr inbounds nuw %struct._zend_op_array, ptr %82, i32 0, i32 26
  %84 = load ptr, ptr %83, align 8, !tbaa !102
  %85 = getelementptr inbounds nuw %struct._zend_string, ptr %84, i32 0, i32 3
  %86 = getelementptr inbounds [1 x i8], ptr %85, i64 0, i64 0
  %87 = load i32, ptr %6, align 4, !tbaa !127
  %88 = call i32 (i32, i32, ptr, ...) @phpdbg_print(i32 noundef 2, i32 noundef %81, ptr noundef @.str.38, ptr noundef %86, i32 noundef %87)
  br label %94

89:                                               ; preds = %75
  %90 = load i32, ptr getelementptr inbounds ([3 x %struct.anon.8], ptr getelementptr inbounds nuw (%struct._zend_phpdbg_globals, ptr @phpdbg_globals, i32 0, i32 40), i64 0, i64 1), align 4, !tbaa !40
  %91 = load ptr, ptr %4, align 8, !tbaa !92
  %92 = load i32, ptr %6, align 4, !tbaa !127
  %93 = call i32 (i32, i32, ptr, ...) @phpdbg_print(i32 noundef 2, i32 noundef %90, ptr noundef @.str.39, ptr noundef %91, i32 noundef %92)
  br label %94

94:                                               ; preds = %89, %80
  br label %95

95:                                               ; preds = %94, %74
  br label %96

96:                                               ; preds = %125, %95
  %97 = load i32, ptr %5, align 4, !tbaa !127
  %98 = load ptr, ptr %4, align 8, !tbaa !92
  %99 = getelementptr inbounds nuw %struct._zend_op_array, ptr %98, i32 0, i32 29
  %100 = load i32, ptr %99, align 8, !tbaa !128
  %101 = icmp slt i32 %97, %100
  br i1 %101, label %102, label %128

102:                                              ; preds = %96
  %103 = load ptr, ptr %4, align 8, !tbaa !92
  %104 = getelementptr inbounds nuw %struct._zend_op_array, ptr %103, i32 0, i32 31
  %105 = load ptr, ptr %104, align 8, !tbaa !131
  %106 = load i32, ptr %5, align 4, !tbaa !127
  %107 = sext i32 %106 to i64
  %108 = getelementptr inbounds %struct._zval_struct, ptr %105, i64 %107
  %109 = call zeroext i8 @zval_get_type(ptr noundef %108)
  %110 = zext i8 %109 to i32
  %111 = icmp ne i32 %110, 1
  br i1 %111, label %112, label %125

112:                                              ; preds = %102
  %113 = load i32, ptr getelementptr inbounds ([3 x %struct.anon.8], ptr getelementptr inbounds nuw (%struct._zend_phpdbg_globals, ptr @phpdbg_globals, i32 0, i32 40), i64 0, i64 1), align 4, !tbaa !40
  %114 = load i32, ptr %5, align 4, !tbaa !127
  %115 = call i32 (i32, i32, ptr, ...) @phpdbg_print(i32 noundef 4, i32 noundef %113, ptr noundef @.str.40, i32 noundef %114)
  %116 = load ptr, ptr %4, align 8, !tbaa !92
  %117 = getelementptr inbounds nuw %struct._zend_op_array, ptr %116, i32 0, i32 31
  %118 = load ptr, ptr %117, align 8, !tbaa !131
  %119 = load i32, ptr %5, align 4, !tbaa !127
  %120 = sext i32 %119 to i64
  %121 = getelementptr inbounds %struct._zval_struct, ptr %118, i64 %120
  %122 = call i64 @zend_print_zval(ptr noundef %121, i32 noundef 0)
  %123 = load i32, ptr getelementptr inbounds ([3 x %struct.anon.8], ptr getelementptr inbounds nuw (%struct._zend_phpdbg_globals, ptr @phpdbg_globals, i32 0, i32 40), i64 0, i64 1), align 4, !tbaa !40
  %124 = call i32 (i32, ptr, ...) @phpdbg_out_internal(i32 noundef %123, ptr noundef @.str.41)
  br label %125

125:                                              ; preds = %112, %102
  %126 = load i32, ptr %5, align 4, !tbaa !127
  %127 = add nsw i32 %126, 1
  store i32 %127, ptr %5, align 4, !tbaa !127
  br label %96

128:                                              ; preds = %96
  call void @llvm.lifetime.end.p0(i64 4, ptr %6) #8
  call void @llvm.lifetime.end.p0(i64 4, ptr %5) #8
  call void @llvm.lifetime.end.p0(i64 8, ptr %4) #8
  br label %132

129:                                              ; preds = %22
  %130 = load i32, ptr getelementptr inbounds ([3 x %struct.anon.8], ptr getelementptr inbounds nuw (%struct._zend_phpdbg_globals, ptr @phpdbg_globals, i32 0, i32 40), i64 0, i64 1), align 4, !tbaa !40
  %131 = call i32 (i32, i32, ptr, ...) @phpdbg_print(i32 noundef 1, i32 noundef %130, ptr noundef @.str.42)
  br label %132

132:                                              ; preds = %129, %128
  call void @llvm.lifetime.end.p0(i64 1, ptr %3) #8
  ret i32 0
}