; Function Attrs: nounwind uwtable
define hidden noundef i32 @phpdbg_do_info_literal(ptr readnone captures(none) %0) #0 {
  %2 = load i8, ptr getelementptr inbounds nuw (i8, ptr @phpdbg_globals, i64 1392), align 8, !tbaa !110, !range !111, !noundef !112
  %3 = trunc nuw i8 %2 to i1
  %4 = load ptr, ptr getelementptr inbounds nuw (i8, ptr @executor_globals, i64 512), align 8
  %5 = icmp ne ptr %4, null
  %or.cond = select i1 %3, i1 %5, i1 false
  br i1 %or.cond, label %6, label %.thread

6:                                                ; preds = %1
  %7 = getelementptr inbounds nuw i8, ptr %4, i64 24
  %8 = load ptr, ptr %7, align 8, !tbaa !113
  %9 = icmp ne ptr %8, null
  %10 = load ptr, ptr getelementptr inbounds nuw (i8, ptr @phpdbg_globals, i64 1360), align 8
  %11 = icmp ne ptr %10, null
  %or.cond3 = select i1 %9, i1 true, i1 %11
  br i1 %or.cond3, label %13, label %63

.thread:                                          ; preds = %1
  %12 = load ptr, ptr getelementptr inbounds nuw (i8, ptr @phpdbg_globals, i64 1360), align 8
  %.not34 = icmp eq ptr %12, null
  br i1 %.not34, label %63, label %.thread33

13:                                               ; preds = %6
  %spec.select = select i1 %9, ptr %8, ptr %10
  br label %.thread33

.thread33:                                        ; preds = %13, %.thread
  %14 = phi ptr [ %12, %.thread ], [ %spec.select, %13 ]
  %15 = getelementptr inbounds nuw i8, ptr %14, i64 184
  %16 = load i32, ptr %15, align 8, !tbaa !115
  %17 = add nsw i32 %16, -1
  %18 = getelementptr inbounds nuw i8, ptr %14, i64 8
  %19 = load ptr, ptr %18, align 8, !tbaa !87
  %.not = icmp eq ptr %19, null
  %20 = load i32, ptr getelementptr inbounds nuw (i8, ptr @phpdbg_globals, i64 1508), align 4, !tbaa !38
  br i1 %.not, label %33, label %21

21:                                               ; preds = %.thread33
  %22 = getelementptr inbounds nuw i8, ptr %14, i64 16
  %23 = load ptr, ptr %22, align 8, !tbaa !116
  %.not30 = icmp eq ptr %23, null
  br i1 %.not30, label %30, label %24

24:                                               ; preds = %21
  %25 = getelementptr inbounds nuw i8, ptr %23, i64 8
  %26 = load ptr, ptr %25, align 8, !tbaa !83
  %27 = getelementptr inbounds nuw i8, ptr %26, i64 24
  %28 = getelementptr inbounds nuw i8, ptr %19, i64 24
  %29 = tail call i32 (i32, i32, ptr, ...) @phpdbg_print(i32 noundef 2, i32 noundef %20, ptr noundef nonnull @.str.36, ptr noundef nonnull %27, ptr noundef nonnull %28, i32 noundef %17) #6
  br label %41

30:                                               ; preds = %21
  %31 = getelementptr inbounds nuw i8, ptr %19, i64 24
  %32 = tail call i32 (i32, i32, ptr, ...) @phpdbg_print(i32 noundef 2, i32 noundef %20, ptr noundef nonnull @.str.37, ptr noundef nonnull %31, i32 noundef %17) #6
  br label %41

33:                                               ; preds = %.thread33
  %34 = getelementptr inbounds nuw i8, ptr %14, i64 168
  %35 = load ptr, ptr %34, align 8, !tbaa !96
  %.not29 = icmp eq ptr %35, null
  br i1 %.not29, label %39, label %36

36:                                               ; preds = %33
  %37 = getelementptr inbounds nuw i8, ptr %35, i64 24
  %38 = tail call i32 (i32, i32, ptr, ...) @phpdbg_print(i32 noundef 2, i32 noundef %20, ptr noundef nonnull @.str.38, ptr noundef nonnull %37, i32 noundef %17) #6
  br label %41

39:                                               ; preds = %33
  %40 = tail call i32 (i32, i32, ptr, ...) @phpdbg_print(i32 noundef 2, i32 noundef %20, ptr noundef nonnull @.str.39, ptr noundef nonnull %14, i32 noundef %17) #6
  br label %41

41:                                               ; preds = %36, %39, %24, %30
  %42 = load i32, ptr %15, align 8, !tbaa !115
  %43 = icmp sgt i32 %42, 0
  br i1 %43, label %.lr.ph, label %.loopexit

.lr.ph:                                           ; preds = %41
  %44 = getelementptr inbounds nuw i8, ptr %14, i64 192
  br label %45

45:                                               ; preds = %.lr.ph, %59
  %46 = phi i32 [ %42, %.lr.ph ], [ %60, %59 ]
  %indvars.iv = phi i64 [ 0, %.lr.ph ], [ %indvars.iv.next, %59 ]
  %47 = load ptr, ptr %44, align 8, !tbaa !117
  %48 = getelementptr inbounds nuw %struct._zval_struct, ptr %47, i64 %indvars.iv, i32 1
  %49 = load i8, ptr %48, align 8, !tbaa !41
  %.not31 = icmp eq i8 %49, 1
  br i1 %.not31, label %59, label %50

50:                                               ; preds = %45
  %51 = load i32, ptr getelementptr inbounds nuw (i8, ptr @phpdbg_globals, i64 1508), align 4, !tbaa !38
  %52 = trunc nuw nsw i64 %indvars.iv to i32
  %53 = tail call i32 (i32, i32, ptr, ...) @phpdbg_print(i32 noundef 4, i32 noundef %51, ptr noundef nonnull @.str.40, i32 noundef %52) #6
  %54 = load ptr, ptr %44, align 8, !tbaa !117
  %55 = getelementptr inbounds nuw %struct._zval_struct, ptr %54, i64 %indvars.iv
  %56 = tail call i64 @zend_print_zval(ptr noundef %55, i32 noundef 0) #6
  %57 = load i32, ptr getelementptr inbounds nuw (i8, ptr @phpdbg_globals, i64 1508), align 4, !tbaa !38
  %58 = tail call i32 (i32, ptr, ...) @phpdbg_out_internal(i32 noundef %57, ptr noundef nonnull @.str.41) #6
  %.pre = load i32, ptr %15, align 8, !tbaa !115
  br label %59

59:                                               ; preds = %50, %45
  %60 = phi i32 [ %.pre, %50 ], [ %46, %45 ]
  %indvars.iv.next = add nuw nsw i64 %indvars.iv, 1
  %61 = sext i32 %60 to i64
  %62 = icmp slt i64 %indvars.iv.next, %61
  br i1 %62, label %45, label %.loopexit

63:                                               ; preds = %.thread, %6
  %64 = load i32, ptr getelementptr inbounds nuw (i8, ptr @phpdbg_globals, i64 1508), align 4, !tbaa !38
  %65 = tail call i32 (i32, i32, ptr, ...) @phpdbg_print(i32 noundef 1, i32 noundef %64, ptr noundef nonnull @.str.42) #6
  br label %.loopexit

.loopexit:                                        ; preds = %59, %41, %63
  ret i32 0
}